target datalayout = "e-m:e-p270:32:32-p271:32:32-p272:64:64-i64:64-i128:128-f80:128-n8:16:32:64-S128"
target triple = "x86_64-pc-linux-gnu"

%"class.llvm::pdb::NativeSymbolEnumerator" = type { %"class.llvm::pdb::NativeRawSymbol", ptr, %"class.llvm::codeview::EnumeratorRecord" }
%"class.llvm::pdb::NativeRawSymbol" = type { %"class.llvm::pdb::IPDBRawSymbol", ptr, i32, i32 }
%"class.llvm::pdb::IPDBRawSymbol" = type { ptr }
%"class.llvm::codeview::EnumeratorRecord" = type { %"class.llvm::codeview::TypeRecord", %"struct.llvm::codeview::MemberAttributes", [4 x i8], %"class.llvm::APSInt", %"class.llvm::StringRef" }
%"class.llvm::codeview::TypeRecord" = type { i16 }
%"struct.llvm::codeview::MemberAttributes" = type { i16 }
%"class.llvm::APSInt" = type { %"class.llvm::APInt.base", i8, [3 x i8] }
%"class.llvm::APInt.base" = type <{ %union.anon, i32 }>
%union.anon = type { i64 }
%"class.llvm::StringRef" = type { ptr, i64 }
%"class.llvm::APInt" = type <{ %union.anon, i32, [4 x i8] }>

; Function Attrs: mustprogress nounwind uwtable
define linkonce_odr hidden void @_ZN4llvm5APIntC2EOS0_(ptr noundef nonnull align 8 dereferenceable(12) %0, ptr noundef nonnull align 8 dereferenceable(12) %1) unnamed_addr #0 comdat align 2 {
  %3 = alloca ptr, align 8
  %4 = alloca ptr, align 8
  store ptr %0, ptr %3, align 8
  store ptr %1, ptr %4, align 8
  %5 = load ptr, ptr %3, align 8
  %6 = getelementptr inbounds nuw %"class.llvm::APInt", ptr %5, i32 0, i32 1
  %7 = load ptr, ptr %4, align 8
  %8 = getelementptr inbounds nuw %"class.llvm::APInt", ptr %7, i32 0, i32 1
  %9 = load i32, ptr %8, align 8
  store i32 %9, ptr %6, align 8
  %10 = getelementptr inbounds nuw %"class.llvm::APInt", ptr %5, i32 0, i32 0
  %11 = load ptr, ptr %4, align 8
  %12 = getelementptr inbounds nuw %"class.llvm::APInt", ptr %11, i32 0, i32 0
  call void @llvm.memcpy.p0.p0.i64(ptr align 8 %10, ptr align 8 %12, i64 8, i1 false)
  %13 = load ptr, ptr %4, align 8
  %14 = getelementptr inbounds nuw %"class.llvm::APInt", ptr %13, i32 0, i32 1
  store i32 0, ptr %14, align 8
  ret void
}

; Function Attrs: mustprogress nounwind uwtable
define linkonce_odr hidden void @_ZN4llvm6APSIntC2EOS0_(ptr noundef nonnull align 8 dereferenceable(13) %0, ptr noundef nonnull align 8 dereferenceable(13) %1) unnamed_addr #0 comdat align 2 {
  %3 = alloca ptr, align 8
  %4 = alloca ptr, align 8
  store ptr %0, ptr %3, align 8
  store ptr %1, ptr %4, align 8
  %5 = load ptr, ptr %3, align 8
  %6 = load ptr, ptr %4, align 8
  call void @_ZN4llvm5APIntC2EOS0_(ptr noundef nonnull align 8 dereferenceable(12) %5, ptr noundef nonnull align 8 dereferenceable(12) %6)
  %7 = getelementptr inbounds nuw %"class.llvm::APSInt", ptr %5, i32 0, i32 1
  %8 = load ptr, ptr %4, align 8
  %9 = getelementptr inbounds nuw %"class.llvm::APSInt", ptr %8, i32 0, i32 1
  %10 = load i8, ptr %9, align 4
  %11 = trunc i8 %10 to i1
  %12 = zext i1 %11 to i8
  store i8 %12, ptr %7, align 4
  ret void
}

; Function Attrs: mustprogress nounwind uwtable
define linkonce_odr hidden void @_ZN4llvm8codeview16EnumeratorRecordC2EOS1_(ptr noundef nonnull align 8 dereferenceable(40) %0, ptr noundef nonnull align 8 dereferenceable(40) %1) unnamed_addr #0 comdat align 2 {
  %3 = alloca ptr, align 8
  %4 = alloca ptr, align 8
  store ptr %0, ptr %3, align 8
  store ptr %1, ptr %4, align 8
  %5 = load ptr, ptr %3, align 8
  %6 = load ptr, ptr %4, align 8
  call void @llvm.memcpy.p0.p0.i64(ptr align 8 %5, ptr align 8 %6, i64 2, i1 false)
  %7 = getelementptr inbounds nuw %"class.llvm::codeview::EnumeratorRecord", ptr %5, i32 0, i32 1
  %8 = load ptr, ptr %4, align 8
  %9 = getelementptr inbounds nuw %"class.llvm::codeview::EnumeratorRecord", ptr %8, i32 0, i32 1
  call void @llvm.memcpy.p0.p0.i64(ptr align 2 %7, ptr align 2 %9, i64 2, i1 false)
  %10 = getelementptr inbounds nuw %"class.llvm::codeview::EnumeratorRecord", ptr %5, i32 0, i32 3
  %11 = load ptr, ptr %4, align 8
  %12 = getelementptr inbounds nuw %"class.llvm::codeview::EnumeratorRecord", ptr %11, i32 0, i32 3
  call void @_ZN4llvm6APSIntC2EOS0_(ptr noundef nonnull align 8 dereferenceable(13) %10, ptr noundef nonnull align 8 dereferenceable(13) %12)
  %13 = getelementptr inbounds nuw %"class.llvm::codeview::EnumeratorRecord", ptr %5, i32 0, i32 4
  %14 = load ptr, ptr %4, align 8
  %15 = getelementptr inbounds nuw %"class.llvm::codeview::EnumeratorRecord", ptr %14, i32 0, i32 4
  call void @llvm.memcpy.p0.p0.i64(ptr align 8 %13, ptr align 8 %15, i64 16, i1 false)
  ret void
}

; Function Attrs: mustprogress nounwind uwtable
define dso_local void @_ZN4llvm3pdb22NativeSymbolEnumeratorC2ERNS0_13NativeSessionEjRKNS0_14NativeTypeEnumENS_8codeview16EnumeratorRecordE(ptr noundef nonnull align 8 dereferenceable(72) %0, ptr noundef nonnull align 8 dereferenceable(584) %1, i32 noundef %2, ptr noundef nonnull align 8 dereferenceable(114) %3, ptr noundef %4) unnamed_addr #0 align 2 {
  %6 = alloca ptr, align 8
  %7 = alloca ptr, align 8
  %8 = alloca i32, align 4
  %9 = alloca ptr, align 8
  %10 = alloca ptr, align 8
  store ptr %0, ptr %6, align 8
  store ptr %1, ptr %7, align 8
  store i32 %2, ptr %8, align 4
  store ptr %3, ptr %9, align 8
  store ptr %4, ptr %10, align 8
  %11 = load ptr, ptr %6, align 8
  %12 = load ptr, ptr %7, align 8
  %13 = load i32, ptr %8, align 4
  call void @_ZN4llvm3pdb15NativeRawSymbolC2ERNS0_13NativeSessionENS0_11PDB_SymTypeEj(ptr noundef nonnull align 8 dereferenceable(24) %11, ptr noundef nonnull align 8 dereferenceable(584) %12, i32 noundef 7, i32 noundef %13)
  store ptr getelementptr inbounds inrange(-16, 1448) ({ [183 x ptr] }, ptr @_ZTVN4llvm3pdb22NativeSymbolEnumeratorE, i32 0, i32 0, i32 2), ptr %11, align 8
  %14 = getelementptr inbounds nuw %"class.llvm::pdb::NativeSymbolEnumerator", ptr %11, i32 0, i32 1
  %15 = load ptr, ptr %9, align 8
  store ptr %15, ptr %14, align 8
  %16 = getelementptr inbounds nuw %"class.llvm::pdb::NativeSymbolEnumerator", ptr %11, i32 0, i32 2
  call void @_ZN4llvm8codeview16EnumeratorRecordC2EOS1_(ptr noundef nonnull align 8 dereferenceable(40) %16, ptr noundef nonnull align 8 dereferenceable(40) %4)
  ret void
}