; Function Attrs: mustprogress nounwind uwtable
define dso_local void @_ZN4llvm3pdb22NativeSymbolEnumeratorC2ERNS0_13NativeSessionEjRKNS0_14NativeTypeEnumENS_8codeview16EnumeratorRecordE(ptr noundef nonnull align 8 dereferenceable(72) %0, ptr noundef nonnull align 8 dereferenceable(584) %1, i32 noundef %2, ptr noundef nonnull align 8 dereferenceable(114) %3, ptr nocapture noundef %4) unnamed_addr #0 align 2 {
  tail call void @_ZN4llvm3pdb15NativeRawSymbolC2ERNS0_13NativeSessionENS0_11PDB_SymTypeEj(ptr noundef nonnull align 8 dereferenceable(24) %0, ptr noundef nonnull align 8 dereferenceable(584) %1, i32 noundef 7, i32 noundef %2) #7
  store ptr getelementptr inbounds inrange(-16, 1448) (i8, ptr @_ZTVN4llvm3pdb22NativeSymbolEnumeratorE, i64 16), ptr %0, align 8
  %6 = getelementptr inbounds nuw i8, ptr %0, i64 24
  store ptr %3, ptr %6, align 8
  %7 = getelementptr inbounds nuw i8, ptr %0, i64 32
  %8 = load i16, ptr %4, align 8
  store i16 %8, ptr %7, align 8
  %9 = getelementptr inbounds i8, ptr %0, i64 34
  %10 = getelementptr inbounds nuw i8, ptr %4, i64 2
  %11 = load i16, ptr %10, align 2
  store i16 %11, ptr %9, align 2
  %12 = getelementptr inbounds i8, ptr %0, i64 40
  %13 = getelementptr inbounds nuw i8, ptr %4, i64 8
  %14 = getelementptr inbounds i8, ptr %0, i64 48
  %15 = getelementptr inbounds i8, ptr %4, i64 16
  %16 = load i32, ptr %15, align 8
  store i32 %16, ptr %14, align 8
  %17 = load i64, ptr %13, align 8
  store i64 %17, ptr %12, align 8
  store i32 0, ptr %15, align 8
  %18 = getelementptr inbounds i8, ptr %0, i64 52
  %19 = getelementptr inbounds i8, ptr %4, i64 20
  %20 = load i8, ptr %19, align 4
  %21 = and i8 %20, 1
  store i8 %21, ptr %18, align 4
  %22 = getelementptr inbounds i8, ptr %0, i64 56
  %23 = getelementptr inbounds nuw i8, ptr %4, i64 24
  tail call void @llvm.memcpy.p0.p0.i64(ptr noundef nonnull align 8 dereferenceable(16) %22, ptr noundef nonnull align 8 dereferenceable(16) %23, i64 16, i1 false)
  ret void
}